target datalayout = "e-m:e-p270:32:32-p271:32:32-p272:64:64-i64:64-i128:128-f80:128-n8:16:32:64-S128"
target triple = "x86_64-pc-linux-gnu"

%struct.CPpmd7 = type { ptr, ptr, ptr, i32, i32, i32, i32, i32, i32, i32, i32, i32, ptr, ptr, ptr, ptr, ptr, i32, [38 x i8], [128 x i8], [38 x i32], [256 x i8], [256 x i8], [256 x i8], %struct.CPpmd_See, [25 x [16 x %struct.CPpmd_See]], [128 x [64 x i16]] }
%struct.CPpmd_See = type { i16, i8, i8 }

; Function Attrs: nounwind uwtable
define internal void @Ppmd7_Free(ptr noundef %0) #0 {
  %2 = alloca ptr, align 8
  store ptr %0, ptr %2, align 8, !tbaa !4
  %3 = load ptr, ptr %2, align 8, !tbaa !4
  %4 = getelementptr inbounds nuw %struct.CPpmd7, ptr %3, i32 0, i32 12
  %5 = load ptr, ptr %4, align 8, !tbaa !8
  call void @free(ptr noundef %5) #6
  %6 = load ptr, ptr %2, align 8, !tbaa !4
  %7 = getelementptr inbounds nuw %struct.CPpmd7, ptr %6, i32 0, i32 10
  store i32 0, ptr %7, align 4, !tbaa !22
  %8 = load ptr, ptr %2, align 8, !tbaa !4
  %9 = getelementptr inbounds nuw %struct.CPpmd7, ptr %8, i32 0, i32 12
  store ptr null, ptr %9, align 8, !tbaa !8
  ret void
}

; Function Attrs: nounwind uwtable
define internal i32 @Ppmd7_Alloc(ptr noundef %0, i32 noundef %1) #0 {
  %3 = alloca i32, align 4
  %4 = alloca ptr, align 8
  %5 = alloca i32, align 4
  store ptr %0, ptr %4, align 8, !tbaa !4
  store i32 %1, ptr %5, align 4, !tbaa !15
  %6 = load ptr, ptr %4, align 8, !tbaa !4
  %7 = getelementptr inbounds nuw %struct.CPpmd7, ptr %6, i32 0, i32 12
  %8 = load ptr, ptr %7, align 8, !tbaa !8
  %9 = icmp eq ptr %8, null
  br i1 %9, label %16, label %10

10:                                               ; preds = %2
  %11 = load ptr, ptr %4, align 8, !tbaa !4
  %12 = getelementptr inbounds nuw %struct.CPpmd7, ptr %11, i32 0, i32 10
  %13 = load i32, ptr %12, align 4, !tbaa !22
  %14 = load i32, ptr %5, align 4, !tbaa !15
  %15 = icmp ne i32 %13, %14
  br i1 %15, label %16, label %43

16:                                               ; preds = %10, %2
  %17 = load i32, ptr %5, align 4, !tbaa !15
  %18 = icmp ult i32 %17, 12
  br i1 %18, label %19, label %20

19:                                               ; preds = %16
  store i32 0, ptr %3, align 4
  br label %44

20:                                               ; preds = %16
  %21 = load ptr, ptr %4, align 8, !tbaa !4
  call void @Ppmd7_Free(ptr noundef %21)
  %22 = load i32, ptr %5, align 4, !tbaa !15
  %23 = and i32 %22, 3
  %24 = sub i32 4, %23
  %25 = load ptr, ptr %4, align 8, !tbaa !4
  %26 = getelementptr inbounds nuw %struct.CPpmd7, ptr %25, i32 0, i32 17
  store i32 %24, ptr %26, align 8, !tbaa !23
  %27 = load ptr, ptr %4, align 8, !tbaa !4
  %28 = getelementptr inbounds nuw %struct.CPpmd7, ptr %27, i32 0, i32 17
  %29 = load i32, ptr %28, align 8, !tbaa !23
  %30 = load i32, ptr %5, align 4, !tbaa !15
  %31 = add i32 %29, %30
  %32 = add i32 %31, 12
  %33 = zext i32 %32 to i64
  %34 = call noalias ptr @malloc(i64 noundef %33) #7
  %35 = load ptr, ptr %4, align 8, !tbaa !4
  %36 = getelementptr inbounds nuw %struct.CPpmd7, ptr %35, i32 0, i32 12
  store ptr %34, ptr %36, align 8, !tbaa !8
  %37 = icmp eq ptr %34, null
  br i1 %37, label %38, label %39

38:                                               ; preds = %20
  store i32 0, ptr %3, align 4
  br label %44

39:                                               ; preds = %20
  %40 = load i32, ptr %5, align 4, !tbaa !15
  %41 = load ptr, ptr %4, align 8, !tbaa !4
  %42 = getelementptr inbounds nuw %struct.CPpmd7, ptr %41, i32 0, i32 10
  store i32 %40, ptr %42, align 4, !tbaa !22
  br label %43

43:                                               ; preds = %39, %10
  store i32 1, ptr %3, align 4
  br label %44

44:                                               ; preds = %43, %38, %19
  %45 = load i32, ptr %3, align 4
  ret i32 %45
}