; Function Attrs: mustprogress nounwind willreturn uwtable
define internal range(i32 0, 2) i32 @Ppmd7_Alloc(ptr noundef captures(none) %0, i32 noundef %1) #1 {
  %3 = getelementptr inbounds nuw i8, ptr %0, i64 64
  %4 = load ptr, ptr %3, align 8, !tbaa !4
  %5 = icmp eq ptr %4, null
  br i1 %5, label %9, label %6

6:                                                ; preds = %2
  %7 = getelementptr inbounds nuw i8, ptr %0, i64 52
  %8 = load i32, ptr %7, align 4, !tbaa !20
  %.not = icmp eq i32 %8, %1
  br i1 %.not, label %22, label %9

9:                                                ; preds = %6, %2
  %10 = icmp ult i32 %1, 12
  br i1 %10, label %22, label %11

11:                                               ; preds = %9
  tail call void @free(ptr noundef %4) #13
  %12 = getelementptr inbounds nuw i8, ptr %0, i64 52
  store i32 0, ptr %12, align 4, !tbaa !20
  %13 = and i32 %1, 3
  %14 = sub nuw nsw i32 4, %13
  %15 = getelementptr inbounds nuw i8, ptr %0, i64 104
  store i32 %14, ptr %15, align 8, !tbaa !21
  %16 = and i32 %1, -4
  %17 = add i32 %16, 16
  %18 = zext i32 %17 to i64
  %19 = tail call noalias ptr @malloc(i64 noundef %18) #14
  store ptr %19, ptr %3, align 8, !tbaa !4
  %20 = icmp eq ptr %19, null
  br i1 %20, label %22, label %21

21:                                               ; preds = %11
  store i32 %1, ptr %12, align 4, !tbaa !20
  br label %22

22:                                               ; preds = %6, %21, %11, %9
  %.0 = phi i32 [ 0, %9 ], [ 0, %11 ], [ 1, %21 ], [ 1, %6 ]
  ret i32 %.0
}